target datalayout = "e-m:e-p270:32:32-p271:32:32-p272:64:64-i64:64-i128:128-f80:128-n8:16:32:64-S128"
target triple = "x86_64-pc-linux-gnu"

%struct.Vec_Int_t_ = type { i32, i32, ptr }
%struct.Aig_Man_t_ = type { ptr, ptr, ptr, ptr, ptr, ptr, ptr, %struct.Aig_Obj_t_, i32, i32, i32, i32, i32, i32, [7 x i32], i32, ptr, i32, ptr, i32, ptr, i32, i32, i32, ptr, i32, i32, i32, i32, i32, ptr, ptr, i32, ptr, ptr, i32, ptr, ptr, i32, i32, i32, ptr, ptr, ptr, ptr, ptr, ptr, ptr, ptr, ptr, ptr, ptr, ptr, ptr, ptr, i32, ptr, ptr, ptr, ptr, i32, i64, i64, i64, ptr, ptr }
%struct.Aig_Obj_t_ = type { %union.anon, ptr, ptr, i64, i32, i32, %union.anon.0 }
%union.anon = type { ptr }
%union.anon.0 = type { ptr }

; Function Attrs: nounwind uwtable
define internal void @Vec_IntFree(ptr noundef %0) #0 {
  %2 = alloca ptr, align 8
  store ptr %0, ptr %2, align 8
  %3 = load ptr, ptr %2, align 8
  %4 = getelementptr inbounds %struct.Vec_Int_t_, ptr %3, i32 0, i32 2
  %5 = load ptr, ptr %4, align 8
  %6 = icmp ne ptr %5, null
  br i1 %6, label %7, label %13

7:                                                ; preds = %1
  %8 = load ptr, ptr %2, align 8
  %9 = getelementptr inbounds %struct.Vec_Int_t_, ptr %8, i32 0, i32 2
  %10 = load ptr, ptr %9, align 8
  call void @free(ptr noundef %10) #10
  %11 = load ptr, ptr %2, align 8
  %12 = getelementptr inbounds %struct.Vec_Int_t_, ptr %11, i32 0, i32 2
  store ptr null, ptr %12, align 8
  br label %14

13:                                               ; preds = %1
  br label %14

14:                                               ; preds = %13, %7
  %15 = load ptr, ptr %2, align 8
  %16 = icmp ne ptr %15, null
  br i1 %16, label %17, label %19

17:                                               ; preds = %14
  %18 = load ptr, ptr %2, align 8
  call void @free(ptr noundef %18) #10
  store ptr null, ptr %2, align 8
  br label %20

19:                                               ; preds = %14
  br label %20

20:                                               ; preds = %19, %17
  ret void
}

; Function Attrs: nounwind uwtable
define ptr @Abc_NtkDarRetimeMinArea(ptr noundef %0, i32 noundef %1, i32 noundef %2, i32 noundef %3, i32 noundef %4, i32 noundef %5) #0 {
  %7 = alloca ptr, align 8
  %8 = alloca ptr, align 8
  %9 = alloca i32, align 4
  %10 = alloca i32, align 4
  %11 = alloca i32, align 4
  %12 = alloca i32, align 4
  %13 = alloca i32, align 4
  %14 = alloca ptr, align 8
  %15 = alloca ptr, align 8
  %16 = alloca ptr, align 8
  store ptr %0, ptr %8, align 8
  store i32 %1, ptr %9, align 4
  store i32 %2, ptr %10, align 4
  store i32 %3, ptr %11, align 4
  store i32 %4, ptr %12, align 4
  store i32 %5, ptr %13, align 4
  %17 = load ptr, ptr %8, align 8
  %18 = call ptr @Abc_NtkToDar(ptr noundef %17, i32 noundef 0, i32 noundef 1)
  store ptr %18, ptr %15, align 8
  %19 = load ptr, ptr %15, align 8
  %20 = icmp eq ptr %19, null
  br i1 %20, label %21, label %22

21:                                               ; preds = %6
  store ptr null, ptr %7, align 8
  br label %47

22:                                               ; preds = %6
  %23 = load ptr, ptr %15, align 8
  %24 = getelementptr inbounds %struct.Aig_Man_t_, ptr %23, i32 0, i32 49
  %25 = load ptr, ptr %24, align 8
  %26 = icmp ne ptr %25, null
  br i1 %26, label %27, label %31

27:                                               ; preds = %22
  %28 = load ptr, ptr %15, align 8
  %29 = getelementptr inbounds %struct.Aig_Man_t_, ptr %28, i32 0, i32 49
  %30 = load ptr, ptr %29, align 8
  call void @Vec_IntFree(ptr noundef %30)
  br label %31

31:                                               ; preds = %27, %22
  %32 = load ptr, ptr %15, align 8
  %33 = getelementptr inbounds %struct.Aig_Man_t_, ptr %32, i32 0, i32 49
  store ptr null, ptr %33, align 8
  %34 = load ptr, ptr %15, align 8
  store ptr %34, ptr %16, align 8
  %35 = load i32, ptr %9, align 4
  %36 = load i32, ptr %10, align 4
  %37 = load i32, ptr %11, align 4
  %38 = load i32, ptr %12, align 4
  %39 = load i32, ptr %13, align 4
  %40 = call ptr @Saig_ManRetimeMinArea(ptr noundef %34, i32 noundef %35, i32 noundef %36, i32 noundef %37, i32 noundef %38, i32 noundef %39)
  store ptr %40, ptr %15, align 8
  %41 = load ptr, ptr %16, align 8
  call void @Aig_ManStop(ptr noundef %41)
  %42 = load ptr, ptr %8, align 8
  %43 = load ptr, ptr %15, align 8
  %44 = call ptr @Abc_NtkFromDarSeqSweep(ptr noundef %42, ptr noundef %43)
  store ptr %44, ptr %14, align 8
  %45 = load ptr, ptr %15, align 8
  call void @Aig_ManStop(ptr noundef %45)
  %46 = load ptr, ptr %14, align 8
  store ptr %46, ptr %7, align 8
  br label %47

47:                                               ; preds = %31, %21
  %48 = load ptr, ptr %7, align 8
  ret ptr %48
}