; Function Attrs: nounwind uwtable
define ptr @Abc_NtkDarRetimeMinArea(ptr noundef %0, i32 noundef %1, i32 noundef %2, i32 noundef %3, i32 noundef %4, i32 noundef %5) local_unnamed_addr #1 {
  %7 = tail call ptr @Abc_NtkToDar(ptr noundef %0, i32 noundef 0, i32 noundef 1)
  %8 = icmp eq ptr %7, null
  br i1 %8, label %19, label %9

9:                                                ; preds = %6
  %10 = getelementptr inbounds nuw i8, ptr %7, i64 392
  %11 = load ptr, ptr %10, align 8
  %.not = icmp eq ptr %11, null
  br i1 %.not, label %16, label %12

12:                                               ; preds = %9
  %13 = getelementptr inbounds nuw i8, ptr %11, i64 8
  %14 = load ptr, ptr %13, align 8
  %.not.i = icmp eq ptr %14, null
  br i1 %.not.i, label %Vec_IntFree.exit, label %15

15:                                               ; preds = %12
  tail call void @free(ptr noundef nonnull %14) #19
  br label %Vec_IntFree.exit

Vec_IntFree.exit:                                 ; preds = %12, %15
  tail call void @free(ptr noundef nonnull %11) #19
  br label %16

16:                                               ; preds = %Vec_IntFree.exit, %9
  store ptr null, ptr %10, align 8
  %17 = tail call ptr @Saig_ManRetimeMinArea(ptr noundef nonnull %7, i32 noundef %1, i32 noundef %2, i32 noundef %3, i32 noundef %4, i32 noundef %5) #19
  tail call void @Aig_ManStop(ptr noundef nonnull %7) #19
  %18 = tail call ptr @Abc_NtkFromDarSeqSweep(ptr noundef %0, ptr noundef %17)
  tail call void @Aig_ManStop(ptr noundef %17) #19
  br label %19

19:                                               ; preds = %6, %16
  %.0 = phi ptr [ %18, %16 ], [ null, %6 ]
  ret ptr %.0
}